; ModuleID = '4/2108.c'
source_filename = "4/2108.c"
target datalayout = "e-m:e-p270:32:32-p271:32:32-p272:64:64-i64:64-f80:128-n8:16:32:64-S128"
target triple = "x86_64-pc-linux-gnu"

@.str = private unnamed_addr constant [5 x i8] c"%d%d\00", align 1
@.str.1 = private unnamed_addr constant [3 x i8] c"%d\00", align 1
@num = common dso_local global [101 x [101 x i32]] zeroinitializer, align 16
@.str.2 = private unnamed_addr constant [4 x i8] c"%d\0A\00", align 1

; Function Attrs: noinline nounwind uwtable
define dso_local i32 @main() #0 {
  %1 = alloca i32, align 4
  %2 = alloca i32, align 4
  %3 = alloca i32, align 4
  %4 = alloca i32, align 4
  %5 = alloca i32, align 4
  %6 = alloca i32, align 4
  %7 = alloca i32, align 4
  %8 = alloca i32, align 4
  %9 = alloca i32, align 4
  %10 = alloca i32, align 4
  store i32 0, i32* %1, align 4
  store i32 0, i32* %2, align 4
  store i32 1, i32* %3, align 4
  store i32 1, i32* %4, align 4
  store i32 1, i32* %9, align 4
  %11 = call i32 (i8*, ...) @__isoc99_scanf(i8* getelementptr inbounds ([5 x i8], [5 x i8]* @.str, i64 0, i64 0), i32* %7, i32* %8)
  store i32 0, i32* %5, align 4
  br label %12

12:                                               ; preds = %35, %0
  %13 = load i32, i32* %5, align 4
  %14 = load i32, i32* %7, align 4
  %15 = sub nsw i32 %14, 1
  %16 = icmp sle i32 %13, %15
  br i1 %16, label %17, label %38

17:                                               ; preds = %12
  store i32 0, i32* %6, align 4
  br label %18

18:                                               ; preds = %31, %17
  %19 = load i32, i32* %6, align 4
  %20 = load i32, i32* %8, align 4
  %21 = sub nsw i32 %20, 1
  %22 = icmp sle i32 %19, %21
  br i1 %22, label %23, label %34

23:                                               ; preds = %18
  %24 = load i32, i32* %5, align 4
  %25 = sext i32 %24 to i64
  %26 = getelementptr inbounds [101 x [101 x i32]], [101 x [101 x i32]]* @num, i64 0, i64 %25
  %27 = load i32, i32* %6, align 4
  %28 = sext i32 %27 to i64
  %29 = getelementptr inbounds [101 x i32], [101 x i32]* %26, i64 0, i64 %28
  %30 = call i32 (i8*, ...) @__isoc99_scanf(i8* getelementptr inbounds ([3 x i8], [3 x i8]* @.str.1, i64 0, i64 0), i32* %29)
  br label %31

31:                                               ; preds = %23
  %32 = load i32, i32* %6, align 4
  %33 = add nsw i32 %32, 1
  store i32 %33, i32* %6, align 4
  br label %18

34:                                               ; preds = %18
  br label %35

35:                                               ; preds = %34
  %36 = load i32, i32* %5, align 4
  %37 = add nsw i32 %36, 1
  store i32 %37, i32* %5, align 4
  br label %12

38:                                               ; preds = %12
  %39 = load i32, i32* getelementptr inbounds ([101 x [101 x i32]], [101 x [101 x i32]]* @num, i64 0, i64 0, i64 0), align 16
  %40 = call i32 (i8*, ...) @printf(i8* getelementptr inbounds ([4 x i8], [4 x i8]* @.str.2, i64 0, i64 0), i32 %39)
  br label %41

41:                                               ; preds = %98, %38
  %42 = load i32, i32* %9, align 4
  %43 = load i32, i32* %7, align 4
  %44 = load i32, i32* %8, align 4
  %45 = mul nsw i32 %43, %44
  %46 = icmp slt i32 %42, %45
  br i1 %46, label %47, label %99

47:                                               ; preds = %41
  store i32 0, i32* %10, align 4
  br label %48

48:                                               ; preds = %63, %47
  %49 = load i32, i32* %3, align 4
  %50 = icmp sge i32 %49, 0
  br i1 %50, label %51, label %61

51:                                               ; preds = %48
  %52 = load i32, i32* %2, align 4
  %53 = load i32, i32* %7, align 4
  %54 = sub nsw i32 %53, 1
  %55 = icmp sle i32 %52, %54
  br i1 %55, label %56, label %61

56:                                               ; preds = %51
  %57 = load i32, i32* %3, align 4
  %58 = load i32, i32* %8, align 4
  %59 = sub nsw i32 %58, 1
  %60 = icmp sle i32 %57, %59
  br label %61

61:                                               ; preds = %56, %51, %48
  %62 = phi i1 [ false, %51 ], [ false, %48 ], [ %60, %56 ]
  br i1 %62, label %63, label %78

63:                                               ; preds = %61
  %64 = load i32, i32* %2, align 4
  %65 = sext i32 %64 to i64
  %66 = getelementptr inbounds [101 x [101 x i32]], [101 x [101 x i32]]* @num, i64 0, i64 %65
  %67 = load i32, i32* %3, align 4
  %68 = sext i32 %67 to i64
  %69 = getelementptr inbounds [101 x i32], [101 x i32]* %66, i64 0, i64 %68
  %70 = load i32, i32* %69, align 4
  %71 = call i32 (i8*, ...) @printf(i8* getelementptr inbounds ([4 x i8], [4 x i8]* @.str.2, i64 0, i64 0), i32 %70)
  %72 = load i32, i32* %2, align 4
  %73 = add nsw i32 %72, 1
  store i32 %73, i32* %2, align 4
  %74 = load i32, i32* %3, align 4
  %75 = add nsw i32 %74, -1
  store i32 %75, i32* %3, align 4
  %76 = load i32, i32* %9, align 4
  %77 = add nsw i32 %76, 1
  store i32 %77, i32* %9, align 4
  store i32 1, i32* %10, align 4
  br label %48

78:                                               ; preds = %61
  %79 = load i32, i32* %10, align 4
  %80 = icmp eq i32 %79, 1
  br i1 %80, label %81, label %84

81:                                               ; preds = %78
  %82 = load i32, i32* %4, align 4
  %83 = add nsw i32 %82, 1
  store i32 %83, i32* %4, align 4
  br label %84

84:                                               ; preds = %81, %78
  %85 = load i32, i32* %4, align 4
  %86 = load i32, i32* %8, align 4
  %87 = sub nsw i32 %86, 1
  %88 = icmp sle i32 %85, %87
  br i1 %88, label %89, label %91

89:                                               ; preds = %84
  store i32 0, i32* %2, align 4
  %90 = load i32, i32* %4, align 4
  store i32 %90, i32* %3, align 4
  br label %98

91:                                               ; preds = %84
  %92 = load i32, i32* %4, align 4
  %93 = load i32, i32* %8, align 4
  %94 = sub nsw i32 %92, %93
  %95 = add nsw i32 %94, 1
  store i32 %95, i32* %2, align 4
  %96 = load i32, i32* %8, align 4
  %97 = sub nsw i32 %96, 1
  store i32 %97, i32* %3, align 4
  br label %98

98:                                               ; preds = %91, %89
  br label %41

99:                                               ; preds = %41
  ret i32 0
}

declare dso_local i32 @__isoc99_scanf(i8*, ...) #1

declare dso_local i32 @printf(i8*, ...) #1


!llvm.module.flags = !{!0}
!llvm.ident = !{!1}

!0 = !{i32 1, !"wchar_size", i32 4}
!1 = !{!"clang version 10.0.0-4ubuntu1 "}
